(lp1
ccopy_reg
_reconstructor
p2
(c__main__
Shuffle
p3
c__builtin__
object
p4
NtRp5
(dp6
S'solution'
p7
S'http://FantasticContraption.com/?designId=12149996'
p8
sS'name'
p9
S'rian'
p10
sS'level'
p11
S'http://FantasticContraption.com/?levelId=635959'
p12
sbag2
(g3
g4
NtRp13
(dp14
g7
S''
sg9
S''
sg11
S'http://FantasticContraption.com/?levelId=636098'
p15
sba.