(lp1
ccopy_reg
_reconstructor
p2
(c__main__
Shuffle
p3
c__builtin__
object
p4
NtRp5
(dp6
S'entryNumber'
p7
I1
sS'solution'
p8
S''
sS'name'
p9
S''
sS'level'
p10
S'http://FantasticContraption.com/?levelId=636858'
p11
sba.