(lp1
ccopy_reg
_reconstructor
p2
(c__main__
Shuffle
p3
c__builtin__
object
p4
NtRp5
(dp6
S'entryNumber'
p7
I1
sS'solution'
p8
S'http://FantasticContraption.com/?designId=12154687'
p9
sS'name'
p10
S'rian'
p11
sS'level'
p12
S'http://FantasticContraption.com/?levelId=636858'
p13
sbag2
(g3
g4
NtRp14
(dp15
g7
I2
sg8
S'http://FantasticContraption.com/?designId=12160328'
p16
sg10
S'uJellyBrah'
p17
sg12
S'http://FantasticContraption.com/?levelId=636875'
p18
sbag2
(g3
g4
NtRp19
(dp20
g7
I3
sg8
S''
sg10
S''
sg12
S'http://FantasticContraption.com/?levelId=637542'
p21
sba.